target datalayout = "e-m:e-p270:32:32-p271:32:32-p272:64:64-i64:64-i128:128-f80:128-n8:16:32:64-S128"
target triple = "x86_64-unknown-linux-gnu"

%struct.timespec = type { i64, i64 }

@_ZN12_GLOBAL__N_120mnStopwatchFrequencyE = internal global i64 1, align 8
@_ZN12_GLOBAL__N_137mfStopwatchCyclesToMinutesCoefficientE = internal global float 0.000000e+00, align 4
@_ZN12_GLOBAL__N_137mfStopwatchCyclesToSecondsCoefficientE = internal global float 0.000000e+00, align 4
@_ZN12_GLOBAL__N_142mfStopwatchCyclesToMillisecondsCoefficientE = internal global float 0.000000e+00, align 4
@_ZN12_GLOBAL__N_142mfStopwatchCyclesToMicrosecondsCoefficientE = internal global float 0.000000e+00, align 4
@_ZN12_GLOBAL__N_141mfStopwatchCyclesToNanosecondsCoefficientE = internal global float 0.000000e+00, align 4
@_ZN12_GLOBAL__N_131mnStopwatchCycleReadingOverheadE = internal global i64 0, align 8
@_ZN12_GLOBAL__N_114mnCPUFrequencyE = internal global i64 1, align 8
@_ZN12_GLOBAL__N_131mfCPUCyclesToMinutesCoefficientE = internal global float 0.000000e+00, align 4
@_ZN12_GLOBAL__N_131mfCPUCyclesToSecondsCoefficientE = internal global float 0.000000e+00, align 4
@_ZN12_GLOBAL__N_136mfCPUCyclesToMillisecondsCoefficientE = internal global float 0.000000e+00, align 4
@_ZN12_GLOBAL__N_136mfCPUCyclesToMicrosecondsCoefficientE = internal global float 0.000000e+00, align 4
@_ZN12_GLOBAL__N_135mfCPUCyclesToNanosecondsCoefficientE = internal global float 0.000000e+00, align 4
@_ZN12_GLOBAL__N_125mnCPUCycleReadingOverheadE = internal global i64 0, align 8

; Function Attrs: mustprogress nounwind uwtable
define linkonce_odr dso_local noundef i64 @_ZN2EA4StdC9Stopwatch11GetCPUCycleEv() #1 comdat align 2 {
entry:
  %0 = call i64 @llvm.x86.rdtsc()
  ret i64 %0
}

; Function Attrs: mustprogress nounwind uwtable
define linkonce_odr dso_local noundef i64 @_ZN2EA4StdC9Stopwatch17GetStopwatchCycleEv() #1 comdat align 2 {
entry:
  %ts = alloca %struct.timespec, align 8
  %result = alloca i32, align 4
  %nNanoseconds = alloca i64, align 8
  %call = call i32 @clock_gettime(i32 noundef 1, ptr noundef %ts) #6
  store i32 %call, ptr %result, align 4
  %0 = load i32, ptr %result, align 4
  %cmp = icmp eq i32 %0, 22
  br i1 %cmp, label %if.then, label %if.end

if.then:                                          ; preds = %entry
  %call1 = call i32 @clock_gettime(i32 noundef 0, ptr noundef %ts) #6
  store i32 %call1, ptr %result, align 4
  br label %if.end

if.end:                                           ; preds = %if.then, %entry
  %tv_nsec = getelementptr inbounds %struct.timespec, ptr %ts, i32 0, i32 1
  %1 = load i64, ptr %tv_nsec, align 8
  %tv_sec = getelementptr inbounds %struct.timespec, ptr %ts, i32 0, i32 0
  %2 = load i64, ptr %tv_sec, align 8
  %mul = mul i64 %2, 1000000000
  %add = add i64 %1, %mul
  store i64 %add, ptr %nNanoseconds, align 8
  %3 = load i64, ptr %nNanoseconds, align 8
  ret i64 %3
}

; Function Attrs: mustprogress uwtable
define dso_local void @_Z32EAStdCStopwatchSetupCoefficientsv() #0 {
entry:
  %nCurrentStopwatchCycleValue1 = alloca i64, align 8
  %nCurrentStopwatchCycleValue2 = alloca i64, align 8
  %nLowestStopwatchCycleReadingOverhead = alloca i64, align 8
  %nCurrentStopwatchCycleReadingOverhead = alloca i64, align 8
  %t = alloca i32, align 4
  %nCurrentCPUCycleValue1 = alloca i64, align 8
  %nCurrentCPUCycleValue2 = alloca i64, align 8
  %nLowestCPUCycleReadingOverhead = alloca i64, align 8
  %nCurrentCPUCycleReadingOverhead = alloca i64, align 8
  %c = alloca i32, align 4
  %0 = load i64, ptr @_ZN12_GLOBAL__N_120mnStopwatchFrequencyE, align 8
  %conv = sitofp i64 %0 to float
  %div = fdiv float 0x3F91111120000000, %conv
  store float %div, ptr @_ZN12_GLOBAL__N_137mfStopwatchCyclesToMinutesCoefficientE, align 4
  %1 = load i64, ptr @_ZN12_GLOBAL__N_120mnStopwatchFrequencyE, align 8
  %conv1 = sitofp i64 %1 to float
  %div2 = fdiv float 1.000000e+00, %conv1
  store float %div2, ptr @_ZN12_GLOBAL__N_137mfStopwatchCyclesToSecondsCoefficientE, align 4
  %2 = load i64, ptr @_ZN12_GLOBAL__N_120mnStopwatchFrequencyE, align 8
  %conv3 = sitofp i64 %2 to float
  %div4 = fdiv float 1.000000e+03, %conv3
  store float %div4, ptr @_ZN12_GLOBAL__N_142mfStopwatchCyclesToMillisecondsCoefficientE, align 4
  %3 = load i64, ptr @_ZN12_GLOBAL__N_120mnStopwatchFrequencyE, align 8
  %conv5 = sitofp i64 %3 to float
  %div6 = fdiv float 1.000000e+06, %conv5
  store float %div6, ptr @_ZN12_GLOBAL__N_142mfStopwatchCyclesToMicrosecondsCoefficientE, align 4
  %4 = load i64, ptr @_ZN12_GLOBAL__N_120mnStopwatchFrequencyE, align 8
  %conv7 = sitofp i64 %4 to float
  %div8 = fdiv float 1.000000e+09, %conv7
  store float %div8, ptr @_ZN12_GLOBAL__N_141mfStopwatchCyclesToNanosecondsCoefficientE, align 4
  store i64 -1, ptr %nLowestStopwatchCycleReadingOverhead, align 8
  store i32 0, ptr %t, align 4
  br label %for.cond

for.cond:                                         ; preds = %for.inc, %entry
  %5 = load i32, ptr %t, align 4
  %cmp = icmp slt i32 %5, 8
  br i1 %cmp, label %for.body, label %for.end

for.body:                                         ; preds = %for.cond
  %call = call noundef i64 @_ZN2EA4StdC9Stopwatch17GetStopwatchCycleEv()
  store i64 %call, ptr %nCurrentStopwatchCycleValue1, align 8
  %call9 = call noundef i64 @_ZN2EA4StdC9Stopwatch17GetStopwatchCycleEv()
  store i64 %call9, ptr %nCurrentStopwatchCycleValue2, align 8
  %6 = load i64, ptr %nCurrentStopwatchCycleValue2, align 8
  %7 = load i64, ptr %nCurrentStopwatchCycleValue1, align 8
  %sub = sub i64 %6, %7
  store i64 %sub, ptr %nCurrentStopwatchCycleReadingOverhead, align 8
  %8 = load i64, ptr %nLowestStopwatchCycleReadingOverhead, align 8
  %9 = load i64, ptr %nCurrentStopwatchCycleReadingOverhead, align 8
  %cmp10 = icmp ugt i64 %8, %9
  br i1 %cmp10, label %if.then, label %if.end

if.then:                                          ; preds = %for.body
  %10 = load i64, ptr %nCurrentStopwatchCycleReadingOverhead, align 8
  store i64 %10, ptr %nLowestStopwatchCycleReadingOverhead, align 8
  br label %if.end

if.end:                                           ; preds = %if.then, %for.body
  br label %for.inc

for.inc:                                          ; preds = %if.end
  %11 = load i32, ptr %t, align 4
  %inc = add nsw i32 %11, 1
  store i32 %inc, ptr %t, align 4
  br label %for.cond, !llvm.loop !5

for.end:                                          ; preds = %for.cond
  %12 = load i64, ptr %nLowestStopwatchCycleReadingOverhead, align 8
  store i64 %12, ptr @_ZN12_GLOBAL__N_131mnStopwatchCycleReadingOverheadE, align 8
  %13 = load i64, ptr @_ZN12_GLOBAL__N_114mnCPUFrequencyE, align 8
  %conv11 = sitofp i64 %13 to float
  %div12 = fdiv float 0x3F91111120000000, %conv11
  store float %div12, ptr @_ZN12_GLOBAL__N_131mfCPUCyclesToMinutesCoefficientE, align 4
  %14 = load i64, ptr @_ZN12_GLOBAL__N_114mnCPUFrequencyE, align 8
  %conv13 = sitofp i64 %14 to float
  %div14 = fdiv float 1.000000e+00, %conv13
  store float %div14, ptr @_ZN12_GLOBAL__N_131mfCPUCyclesToSecondsCoefficientE, align 4
  %15 = load i64, ptr @_ZN12_GLOBAL__N_114mnCPUFrequencyE, align 8
  %conv15 = sitofp i64 %15 to float
  %div16 = fdiv float 1.000000e+03, %conv15
  store float %div16, ptr @_ZN12_GLOBAL__N_136mfCPUCyclesToMillisecondsCoefficientE, align 4
  %16 = load i64, ptr @_ZN12_GLOBAL__N_114mnCPUFrequencyE, align 8
  %conv17 = sitofp i64 %16 to float
  %div18 = fdiv float 1.000000e+06, %conv17
  store float %div18, ptr @_ZN12_GLOBAL__N_136mfCPUCyclesToMicrosecondsCoefficientE, align 4
  %17 = load i64, ptr @_ZN12_GLOBAL__N_114mnCPUFrequencyE, align 8
  %conv19 = sitofp i64 %17 to float
  %div20 = fdiv float 1.000000e+09, %conv19
  store float %div20, ptr @_ZN12_GLOBAL__N_135mfCPUCyclesToNanosecondsCoefficientE, align 4
  store i64 -1, ptr %nLowestCPUCycleReadingOverhead, align 8
  store i32 0, ptr %c, align 4
  br label %for.cond21

for.cond21:                                       ; preds = %for.inc30, %for.end
  %18 = load i32, ptr %c, align 4
  %cmp22 = icmp slt i32 %18, 8
  br i1 %cmp22, label %for.body23, label %for.end32

for.body23:                                       ; preds = %for.cond21
  %call24 = call noundef i64 @_ZN2EA4StdC9Stopwatch11GetCPUCycleEv()
  store i64 %call24, ptr %nCurrentCPUCycleValue1, align 8
  %call25 = call noundef i64 @_ZN2EA4StdC9Stopwatch11GetCPUCycleEv()
  store i64 %call25, ptr %nCurrentCPUCycleValue2, align 8
  %19 = load i64, ptr %nCurrentCPUCycleValue2, align 8
  %20 = load i64, ptr %nCurrentCPUCycleValue1, align 8
  %sub26 = sub i64 %19, %20
  store i64 %sub26, ptr %nCurrentCPUCycleReadingOverhead, align 8
  %21 = load i64, ptr %nLowestCPUCycleReadingOverhead, align 8
  %22 = load i64, ptr %nCurrentCPUCycleReadingOverhead, align 8
  %cmp27 = icmp ugt i64 %21, %22
  br i1 %cmp27, label %if.then28, label %if.end29

if.then28:                                        ; preds = %for.body23
  %23 = load i64, ptr %nCurrentCPUCycleReadingOverhead, align 8
  store i64 %23, ptr %nLowestCPUCycleReadingOverhead, align 8
  br label %if.end29

if.end29:                                         ; preds = %if.then28, %for.body23
  br label %for.inc30

for.inc30:                                        ; preds = %if.end29
  %24 = load i32, ptr %c, align 4
  %inc31 = add nsw i32 %24, 1
  store i32 %inc31, ptr %c, align 4
  br label %for.cond21, !llvm.loop !7

for.end32:                                        ; preds = %for.cond21
  %25 = load i64, ptr %nLowestCPUCycleReadingOverhead, align 8
  store i64 %25, ptr @_ZN12_GLOBAL__N_125mnCPUCycleReadingOverheadE, align 8
  ret void
}