; Function Attrs: mustprogress nounwind uwtable
define dso_local void @_Z32EAStdCStopwatchSetupCoefficientsv() local_unnamed_addr #0 {
entry:
  %ts.i12 = alloca %struct.timespec, align 8
  %ts.i = alloca %struct.timespec, align 8
  %.b10 = load i1, ptr @_ZN12_GLOBAL__N_120mnStopwatchFrequencyE, align 8
  %div = select i1 %.b10, float 0x3DB2534000000000, float 0x3F91111120000000
  store float %div, ptr @_ZN12_GLOBAL__N_137mfStopwatchCyclesToMinutesCoefficientE, align 4
  %div2 = select i1 %.b10, float 0x3E112E0BE0000000, float 1.000000e+00
  store float %div2, ptr @_ZN12_GLOBAL__N_137mfStopwatchCyclesToSecondsCoefficientE, align 4
  %div4 = select i1 %.b10, float 0x3EB0C6F7A0000000, float 1.000000e+03
  store float %div4, ptr @_ZN12_GLOBAL__N_142mfStopwatchCyclesToMillisecondsCoefficientE, align 4
  %div6 = select i1 %.b10, float 0x3F50624DE0000000, float 1.000000e+06
  store float %div6, ptr @_ZN12_GLOBAL__N_142mfStopwatchCyclesToMicrosecondsCoefficientE, align 4
  %div8 = select i1 %.b10, float 1.000000e+00, float 1.000000e+09
  store float %div8, ptr @_ZN12_GLOBAL__N_141mfStopwatchCyclesToNanosecondsCoefficientE, align 4
  %tv_nsec.i = getelementptr inbounds nuw i8, ptr %ts.i, i64 8
  %tv_nsec.i15 = getelementptr inbounds nuw i8, ptr %ts.i12, i64 8
  br label %for.body

for.body:                                         ; preds = %entry, %_ZN2EA4StdC9Stopwatch17GetStopwatchCycleEv.exit20
  %nLowestStopwatchCycleReadingOverhead.022 = phi i64 [ -1, %entry ], [ %spec.select, %_ZN2EA4StdC9Stopwatch17GetStopwatchCycleEv.exit20 ]
  %t.021 = phi i32 [ 0, %entry ], [ %inc, %_ZN2EA4StdC9Stopwatch17GetStopwatchCycleEv.exit20 ]
  call void @llvm.lifetime.start.p0(i64 16, ptr nonnull %ts.i)
  %call.i = call i32 @clock_gettime(i32 noundef 1, ptr noundef nonnull %ts.i) #7
  %cmp.i = icmp eq i32 %call.i, 22
  br i1 %cmp.i, label %if.then.i, label %_ZN2EA4StdC9Stopwatch17GetStopwatchCycleEv.exit

if.then.i:                                        ; preds = %for.body
  %call1.i = call i32 @clock_gettime(i32 noundef 0, ptr noundef nonnull %ts.i) #7
  br label %_ZN2EA4StdC9Stopwatch17GetStopwatchCycleEv.exit

_ZN2EA4StdC9Stopwatch17GetStopwatchCycleEv.exit:  ; preds = %for.body, %if.then.i
  %0 = load i64, ptr %tv_nsec.i, align 8
  %1 = load i64, ptr %ts.i, align 8
  call void @llvm.lifetime.end.p0(i64 16, ptr nonnull %ts.i)
  call void @llvm.lifetime.start.p0(i64 16, ptr nonnull %ts.i12)
  %call.i13 = call i32 @clock_gettime(i32 noundef 1, ptr noundef nonnull %ts.i12) #7
  %cmp.i14 = icmp eq i32 %call.i13, 22
  br i1 %cmp.i14, label %if.then.i18, label %_ZN2EA4StdC9Stopwatch17GetStopwatchCycleEv.exit20

if.then.i18:                                      ; preds = %_ZN2EA4StdC9Stopwatch17GetStopwatchCycleEv.exit
  %call1.i19 = call i32 @clock_gettime(i32 noundef 0, ptr noundef nonnull %ts.i12) #7
  br label %_ZN2EA4StdC9Stopwatch17GetStopwatchCycleEv.exit20

_ZN2EA4StdC9Stopwatch17GetStopwatchCycleEv.exit20: ; preds = %_ZN2EA4StdC9Stopwatch17GetStopwatchCycleEv.exit, %if.then.i18
  %2 = load i64, ptr %tv_nsec.i15, align 8
  %3 = load i64, ptr %ts.i12, align 8
  call void @llvm.lifetime.end.p0(i64 16, ptr nonnull %ts.i12)
  %reass.add = sub i64 %3, %1
  %reass.mul = mul i64 %reass.add, 1000000000
  %add.i17 = sub i64 %2, %0
  %sub = add i64 %add.i17, %reass.mul
  %spec.select = call i64 @llvm.umin.i64(i64 %nLowestStopwatchCycleReadingOverhead.022, i64 %sub)
  %inc = add nuw nsw i32 %t.021, 1
  %exitcond.not = icmp eq i32 %inc, 8
  br i1 %exitcond.not, label %for.end, label %for.body, !llvm.loop !5

for.end:                                          ; preds = %_ZN2EA4StdC9Stopwatch17GetStopwatchCycleEv.exit20
  store i64 %spec.select, ptr @_ZN12_GLOBAL__N_131mnStopwatchCycleReadingOverheadE, align 8
  %4 = load i64, ptr @_ZN12_GLOBAL__N_114mnCPUFrequencyE, align 8
  %conv11 = sitofp i64 %4 to float
  %div12 = fdiv float 0x3F91111120000000, %conv11
  store float %div12, ptr @_ZN12_GLOBAL__N_131mfCPUCyclesToMinutesCoefficientE, align 4
  %div14 = fdiv float 1.000000e+00, %conv11
  store float %div14, ptr @_ZN12_GLOBAL__N_131mfCPUCyclesToSecondsCoefficientE, align 4
  %div16 = fdiv float 1.000000e+03, %conv11
  store float %div16, ptr @_ZN12_GLOBAL__N_136mfCPUCyclesToMillisecondsCoefficientE, align 4
  %div18 = fdiv float 1.000000e+06, %conv11
  store float %div18, ptr @_ZN12_GLOBAL__N_136mfCPUCyclesToMicrosecondsCoefficientE, align 4
  %div20 = fdiv float 1.000000e+09, %conv11
  store float %div20, ptr @_ZN12_GLOBAL__N_135mfCPUCyclesToNanosecondsCoefficientE, align 4
  br label %for.body23

for.body23:                                       ; preds = %for.end, %for.body23
  %c.024 = phi i32 [ 0, %for.end ], [ %inc31, %for.body23 ]
  %5 = call noundef i64 @llvm.x86.rdtsc()
  %6 = call noundef i64 @llvm.x86.rdtsc()
  %inc31 = add nuw nsw i32 %c.024, 1
  %exitcond25.not = icmp eq i32 %inc31, 8
  br i1 %exitcond25.not, label %for.end32, label %for.body23, !llvm.loop !7

for.end32:                                        ; preds = %for.body23
  ret void
}